; Function Attrs: null_pointer_is_valid sspstrong uwtable
define internal void @dissect_pcep_obj_pcc_id_req(ptr noundef %0, ptr noundef %1, ptr noundef %2, i32 noundef %3, i32 noundef %4, i32 %5, i32 noundef %6) #0 {
  switch i32 %6, label %20 [
    i32 1, label %8
    i32 2, label %14
  ]

8:                                                ; preds = %7
  %.not26 = icmp eq i32 %4, 8
  br i1 %.not26, label %11, label %9

9:                                                ; preds = %8
  %10 = tail call ptr (ptr, ptr, ptr, ptr, i32, i32, ptr, ...) @proto_tree_add_expert_format(ptr noundef %0, ptr noundef %1, ptr noundef nonnull @ei_pcep_subobject_bad_length, ptr noundef %2, i32 noundef %3, i32 noundef %4, ptr noundef nonnull @.str.1391, i32 noundef %4, i32 noundef 8)
  br label %23

11:                                               ; preds = %8
  %12 = load i32, ptr @hf_pcep_obj_pcc_id_req_ipv4, align 4
  %13 = tail call ptr @proto_tree_add_item(ptr noundef %0, i32 noundef %12, ptr noundef %2, i32 noundef %3, i32 noundef 4, i32 noundef 0)
  br label %23

14:                                               ; preds = %7
  %.not = icmp eq i32 %4, 20
  br i1 %.not, label %17, label %15

15:                                               ; preds = %14
  %16 = tail call ptr (ptr, ptr, ptr, ptr, i32, i32, ptr, ...) @proto_tree_add_expert_format(ptr noundef %0, ptr noundef %1, ptr noundef nonnull @ei_pcep_subobject_bad_length, ptr noundef %2, i32 noundef %3, i32 noundef %4, ptr noundef nonnull @.str.1392, i32 noundef %4, i32 noundef 20)
  br label %23

17:                                               ; preds = %14
  %18 = load i32, ptr @hf_pcep_obj_pcc_id_req_ipv6, align 4
  %19 = tail call ptr @proto_tree_add_item(ptr noundef %0, i32 noundef %18, ptr noundef %2, i32 noundef %3, i32 noundef 16, i32 noundef 0)
  br label %23

20:                                               ; preds = %7
  %21 = add i32 %4, -4
  %22 = tail call ptr (ptr, ptr, ptr, ptr, i32, i32, ptr, ...) @proto_tree_add_expert_format(ptr noundef %0, ptr noundef %1, ptr noundef nonnull @ei_pcep_non_defined_subobject, ptr noundef %2, i32 noundef %3, i32 noundef %21, ptr noundef nonnull @.str.1148, i32 noundef %6)
  br label %23

23:                                               ; preds = %20, %17, %15, %11, %9
  ret void
}